; ModuleID = '10/2188.c'
source_filename = "10/2188.c"
target datalayout = "e-m:e-p270:32:32-p271:32:32-p272:64:64-i64:64-f80:128-n8:16:32:64-S128"
target triple = "x86_64-pc-linux-gnu"

@.str = private unnamed_addr constant [3 x i8] c"%d\00", align 1

; Function Attrs: noinline nounwind uwtable
define dso_local void @main() #0 {
  %1 = alloca [25 x i32], align 16
  %2 = alloca i32, align 4
  %3 = alloca i32, align 4
  %4 = alloca [25 x [2 x i32]], align 16
  %5 = alloca i32, align 4
  %6 = call i32 (i8*, ...) @__isoc99_scanf(i8* getelementptr inbounds ([3 x i8], [3 x i8]* @.str, i64 0, i64 0), i32* %5)
  store i32 0, i32* %2, align 4
  br label %7

7:                                                ; preds = %16, %0
  %8 = load i32, i32* %2, align 4
  %9 = load i32, i32* %5, align 4
  %10 = icmp slt i32 %8, %9
  br i1 %10, label %11, label %19

11:                                               ; preds = %7
  %12 = load i32, i32* %2, align 4
  %13 = sext i32 %12 to i64
  %14 = getelementptr inbounds [25 x i32], [25 x i32]* %1, i64 0, i64 %13
  %15 = call i32 (i8*, ...) @__isoc99_scanf(i8* getelementptr inbounds ([3 x i8], [3 x i8]* @.str, i64 0, i64 0), i32* %14)
  br label %16

16:                                               ; preds = %11
  %17 = load i32, i32* %2, align 4
  %18 = add nsw i32 %17, 1
  store i32 %18, i32* %2, align 4
  br label %7

19:                                               ; preds = %7
  store i32 0, i32* %2, align 4
  br label %20

20:                                               ; preds = %29, %19
  %21 = load i32, i32* %2, align 4
  %22 = load i32, i32* %5, align 4
  %23 = icmp slt i32 %21, %22
  br i1 %23, label %24, label %32

24:                                               ; preds = %20
  %25 = load i32, i32* %2, align 4
  %26 = sext i32 %25 to i64
  %27 = getelementptr inbounds [25 x [2 x i32]], [25 x [2 x i32]]* %4, i64 0, i64 %26
  %28 = getelementptr inbounds [2 x i32], [2 x i32]* %27, i64 0, i64 0
  store i32 1, i32* %28, align 8
  br label %29

29:                                               ; preds = %24
  %30 = load i32, i32* %2, align 4
  %31 = add nsw i32 %30, 1
  store i32 %31, i32* %2, align 4
  br label %20

32:                                               ; preds = %20
  store i32 0, i32* %2, align 4
  br label %33

33:                                               ; preds = %42, %32
  %34 = load i32, i32* %2, align 4
  %35 = load i32, i32* %5, align 4
  %36 = icmp slt i32 %34, %35
  br i1 %36, label %37, label %45

37:                                               ; preds = %33
  %38 = load i32, i32* %2, align 4
  %39 = sext i32 %38 to i64
  %40 = getelementptr inbounds [25 x [2 x i32]], [25 x [2 x i32]]* %4, i64 0, i64 %39
  %41 = getelementptr inbounds [2 x i32], [2 x i32]* %40, i64 0, i64 1
  store i32 0, i32* %41, align 4
  br label %42

42:                                               ; preds = %37
  %43 = load i32, i32* %2, align 4
  %44 = add nsw i32 %43, 1
  store i32 %44, i32* %2, align 4
  br label %33

45:                                               ; preds = %33
  store i32 1, i32* %2, align 4
  br label %46

46:                                               ; preds = %137, %45
  %47 = load i32, i32* %2, align 4
  %48 = load i32, i32* %5, align 4
  %49 = icmp slt i32 %47, %48
  br i1 %49, label %50, label %140

50:                                               ; preds = %46
  store i32 0, i32* %3, align 4
  br label %51

51:                                               ; preds = %133, %50
  %52 = load i32, i32* %3, align 4
  %53 = load i32, i32* %2, align 4
  %54 = icmp slt i32 %52, %53
  br i1 %54, label %55, label %136

55:                                               ; preds = %51
  %56 = load i32, i32* %3, align 4
  %57 = sext i32 %56 to i64
  %58 = getelementptr inbounds [25 x i32], [25 x i32]* %1, i64 0, i64 %57
  %59 = load i32, i32* %58, align 4
  %60 = load i32, i32* %2, align 4
  %61 = sext i32 %60 to i64
  %62 = getelementptr inbounds [25 x i32], [25 x i32]* %1, i64 0, i64 %61
  %63 = load i32, i32* %62, align 4
  %64 = icmp sge i32 %59, %63
  br i1 %64, label %65, label %88

65:                                               ; preds = %55
  %66 = load i32, i32* %3, align 4
  %67 = sext i32 %66 to i64
  %68 = getelementptr inbounds [25 x [2 x i32]], [25 x [2 x i32]]* %4, i64 0, i64 %67
  %69 = getelementptr inbounds [2 x i32], [2 x i32]* %68, i64 0, i64 0
  %70 = load i32, i32* %69, align 8
  %71 = load i32, i32* %2, align 4
  %72 = sext i32 %71 to i64
  %73 = getelementptr inbounds [25 x [2 x i32]], [25 x [2 x i32]]* %4, i64 0, i64 %72
  %74 = getelementptr inbounds [2 x i32], [2 x i32]* %73, i64 0, i64 0
  %75 = load i32, i32* %74, align 8
  %76 = icmp sge i32 %70, %75
  br i1 %76, label %77, label %88

77:                                               ; preds = %65
  %78 = load i32, i32* %3, align 4
  %79 = sext i32 %78 to i64
  %80 = getelementptr inbounds [25 x [2 x i32]], [25 x [2 x i32]]* %4, i64 0, i64 %79
  %81 = getelementptr inbounds [2 x i32], [2 x i32]* %80, i64 0, i64 0
  %82 = load i32, i32* %81, align 8
  %83 = add nsw i32 %82, 1
  %84 = load i32, i32* %2, align 4
  %85 = sext i32 %84 to i64
  %86 = getelementptr inbounds [25 x [2 x i32]], [25 x [2 x i32]]* %4, i64 0, i64 %85
  %87 = getelementptr inbounds [2 x i32], [2 x i32]* %86, i64 0, i64 0
  store i32 %83, i32* %87, align 8
  br label %88

88:                                               ; preds = %77, %65, %55
  %89 = load i32, i32* %3, align 4
  %90 = sext i32 %89 to i64
  %91 = getelementptr inbounds [25 x [2 x i32]], [25 x [2 x i32]]* %4, i64 0, i64 %90
  %92 = getelementptr inbounds [2 x i32], [2 x i32]* %91, i64 0, i64 1
  %93 = load i32, i32* %92, align 4
  %94 = load i32, i32* %2, align 4
  %95 = sext i32 %94 to i64
  %96 = getelementptr inbounds [25 x [2 x i32]], [25 x [2 x i32]]* %4, i64 0, i64 %95
  %97 = getelementptr inbounds [2 x i32], [2 x i32]* %96, i64 0, i64 1
  %98 = load i32, i32* %97, align 4
  %99 = icmp sgt i32 %93, %98
  br i1 %99, label %100, label %110

100:                                              ; preds = %88
  %101 = load i32, i32* %3, align 4
  %102 = sext i32 %101 to i64
  %103 = getelementptr inbounds [25 x [2 x i32]], [25 x [2 x i32]]* %4, i64 0, i64 %102
  %104 = getelementptr inbounds [2 x i32], [2 x i32]* %103, i64 0, i64 1
  %105 = load i32, i32* %104, align 4
  %106 = load i32, i32* %2, align 4
  %107 = sext i32 %106 to i64
  %108 = getelementptr inbounds [25 x [2 x i32]], [25 x [2 x i32]]* %4, i64 0, i64 %107
  %109 = getelementptr inbounds [2 x i32], [2 x i32]* %108, i64 0, i64 1
  store i32 %105, i32* %109, align 4
  br label %110

110:                                              ; preds = %100, %88
  %111 = load i32, i32* %3, align 4
  %112 = sext i32 %111 to i64
  %113 = getelementptr inbounds [25 x [2 x i32]], [25 x [2 x i32]]* %4, i64 0, i64 %112
  %114 = getelementptr inbounds [2 x i32], [2 x i32]* %113, i64 0, i64 0
  %115 = load i32, i32* %114, align 8
  %116 = load i32, i32* %2, align 4
  %117 = sext i32 %116 to i64
  %118 = getelementptr inbounds [25 x [2 x i32]], [25 x [2 x i32]]* %4, i64 0, i64 %117
  %119 = getelementptr inbounds [2 x i32], [2 x i32]* %118, i64 0, i64 1
  %120 = load i32, i32* %119, align 4
  %121 = icmp sgt i32 %115, %120
  br i1 %121, label %122, label %132

122:                                              ; preds = %110
  %123 = load i32, i32* %3, align 4
  %124 = sext i32 %123 to i64
  %125 = getelementptr inbounds [25 x [2 x i32]], [25 x [2 x i32]]* %4, i64 0, i64 %124
  %126 = getelementptr inbounds [2 x i32], [2 x i32]* %125, i64 0, i64 0
  %127 = load i32, i32* %126, align 8
  %128 = load i32, i32* %2, align 4
  %129 = sext i32 %128 to i64
  %130 = getelementptr inbounds [25 x [2 x i32]], [25 x [2 x i32]]* %4, i64 0, i64 %129
  %131 = getelementptr inbounds [2 x i32], [2 x i32]* %130, i64 0, i64 1
  store i32 %127, i32* %131, align 4
  br label %132

132:                                              ; preds = %122, %110
  br label %133

133:                                              ; preds = %132
  %134 = load i32, i32* %3, align 4
  %135 = add nsw i32 %134, 1
  store i32 %135, i32* %3, align 4
  br label %51

136:                                              ; preds = %51
  br label %137

137:                                              ; preds = %136
  %138 = load i32, i32* %2, align 4
  %139 = add nsw i32 %138, 1
  store i32 %139, i32* %2, align 4
  br label %46

140:                                              ; preds = %46
  %141 = load i32, i32* %2, align 4
  %142 = add nsw i32 %141, -1
  store i32 %142, i32* %2, align 4
  %143 = load i32, i32* %2, align 4
  %144 = sext i32 %143 to i64
  %145 = getelementptr inbounds [25 x [2 x i32]], [25 x [2 x i32]]* %4, i64 0, i64 %144
  %146 = getelementptr inbounds [2 x i32], [2 x i32]* %145, i64 0, i64 0
  %147 = load i32, i32* %146, align 8
  %148 = load i32, i32* %2, align 4
  %149 = sext i32 %148 to i64
  %150 = getelementptr inbounds [25 x [2 x i32]], [25 x [2 x i32]]* %4, i64 0, i64 %149
  %151 = getelementptr inbounds [2 x i32], [2 x i32]* %150, i64 0, i64 1
  %152 = load i32, i32* %151, align 4
  %153 = icmp slt i32 %147, %152
  br i1 %153, label %154, label %164

154:                                              ; preds = %140
  %155 = load i32, i32* %2, align 4
  %156 = sext i32 %155 to i64
  %157 = getelementptr inbounds [25 x [2 x i32]], [25 x [2 x i32]]* %4, i64 0, i64 %156
  %158 = getelementptr inbounds [2 x i32], [2 x i32]* %157, i64 0, i64 1
  %159 = load i32, i32* %158, align 4
  %160 = load i32, i32* %2, align 4
  %161 = sext i32 %160 to i64
  %162 = getelementptr inbounds [25 x [2 x i32]], [25 x [2 x i32]]* %4, i64 0, i64 %161
  %163 = getelementptr inbounds [2 x i32], [2 x i32]* %162, i64 0, i64 0
  store i32 %159, i32* %163, align 8
  br label %164

164:                                              ; preds = %154, %140
  %165 = load i32, i32* %2, align 4
  %166 = sext i32 %165 to i64
  %167 = getelementptr inbounds [25 x [2 x i32]], [25 x [2 x i32]]* %4, i64 0, i64 %166
  %168 = getelementptr inbounds [2 x i32], [2 x i32]* %167, i64 0, i64 0
  %169 = load i32, i32* %168, align 8
  %170 = call i32 (i8*, ...) @printf(i8* getelementptr inbounds ([3 x i8], [3 x i8]* @.str, i64 0, i64 0), i32 %169)
  ret void
}

declare dso_local i32 @__isoc99_scanf(i8*, ...) #1

declare dso_local i32 @printf(i8*, ...) #1


!llvm.module.flags = !{!0}
!llvm.ident = !{!1}

!0 = !{i32 1, !"wchar_size", i32 4}
!1 = !{!"clang version 10.0.0-4ubuntu1 "}
